target datalayout = "e-m:e-p270:32:32-p271:32:32-p272:64:64-i64:64-i128:128-f80:128-n8:16:32:64-S128"
target triple = "x86_64-pc-linux-gnu"

%struct.XXH128_hash_t = type { i64, i64 }
%struct.XXH128_canonical_t = type { [16 x i8] }

; Function Attrs: mustprogress nounwind uwtable
define internal noundef i64 @_ZL10XXH_read64PKv(ptr noundef %0) #4 {
  %2 = alloca ptr, align 8
  store ptr %0, ptr %2, align 8, !tbaa !4
  %3 = load ptr, ptr %2, align 8, !tbaa !4
  %4 = load i64, ptr %3, align 1, !tbaa !8
  ret i64 %4
}

; Function Attrs: mustprogress nounwind uwtable
define internal noundef i64 @_ZL12XXH_readBE64PKv(ptr noundef %0) #4 {
  %2 = alloca ptr, align 8
  store ptr %0, ptr %2, align 8, !tbaa !4
  %3 = load ptr, ptr %2, align 8, !tbaa !4
  %4 = call noundef i64 @_ZL10XXH_read64PKv(ptr noundef %3)
  %5 = call noundef i64 @_ZL10XXH_swap64m(i64 noundef %4)
  ret i64 %5
}

; Function Attrs: alwaysinline mustprogress nounwind uwtable
define internal void @_ZL13XXH_writeLE64Pvm(ptr noundef %0, i64 noundef %1) #19 {
  %3 = alloca ptr, align 8
  %4 = alloca i64, align 8
  store ptr %0, ptr %3, align 8, !tbaa !4
  store i64 %1, ptr %4, align 8, !tbaa !8
  %5 = load ptr, ptr %3, align 8, !tbaa !4
  %6 = call noundef ptr @_ZL10XXH_memcpyPvPKvm(ptr noundef %5, ptr noundef %4, i64 noundef 8)
  ret void
}

; Function Attrs: alwaysinline mustprogress uwtable
define internal noundef i64 @_ZL12XXH_readLE64PKv(ptr noundef %0) #7 {
  %2 = alloca ptr, align 8
  store ptr %0, ptr %2, align 8, !tbaa !4
  %3 = load ptr, ptr %2, align 8, !tbaa !4
  %4 = call noundef i64 @_ZL10XXH_read64PKv(ptr noundef %3)
  ret i64 %4
}

; Function Attrs: mustprogress nounwind uwtable
define internal noundef ptr @_ZL10XXH_memcpyPvPKvm(ptr noundef %0, ptr noundef %1, i64 noundef %2) #4 {
  %4 = alloca ptr, align 8
  %5 = alloca ptr, align 8
  %6 = alloca i64, align 8
  store ptr %0, ptr %4, align 8, !tbaa !4
  store ptr %1, ptr %5, align 8, !tbaa !4
  store i64 %2, ptr %6, align 8, !tbaa !8
  %7 = load ptr, ptr %4, align 8, !tbaa !4
  %8 = load ptr, ptr %5, align 8, !tbaa !4
  %9 = load i64, ptr %6, align 8, !tbaa !8
  call void @llvm.memcpy.p0.p0.i64(ptr align 1 %7, ptr align 1 %8, i64 %9, i1 false)
  ret ptr %7
}

; Function Attrs: mustprogress nounwind uwtable
define internal noundef i64 @_ZL10XXH_swap64m(i64 noundef %0) #4 {
  %2 = alloca i64, align 8
  store i64 %0, ptr %2, align 8, !tbaa !8
  %3 = load i64, ptr %2, align 8, !tbaa !8
  %4 = shl i64 %3, 56
  %5 = and i64 %4, -72057594037927936
  %6 = load i64, ptr %2, align 8, !tbaa !8
  %7 = shl i64 %6, 40
  %8 = and i64 %7, 71776119061217280
  %9 = or i64 %5, %8
  %10 = load i64, ptr %2, align 8, !tbaa !8
  %11 = shl i64 %10, 24
  %12 = and i64 %11, 280375465082880
  %13 = or i64 %9, %12
  %14 = load i64, ptr %2, align 8, !tbaa !8
  %15 = shl i64 %14, 8
  %16 = and i64 %15, 1095216660480
  %17 = or i64 %13, %16
  %18 = load i64, ptr %2, align 8, !tbaa !8
  %19 = lshr i64 %18, 8
  %20 = and i64 %19, 4278190080
  %21 = or i64 %17, %20
  %22 = load i64, ptr %2, align 8, !tbaa !8
  %23 = lshr i64 %22, 24
  %24 = and i64 %23, 16711680
  %25 = or i64 %21, %24
  %26 = load i64, ptr %2, align 8, !tbaa !8
  %27 = lshr i64 %26, 40
  %28 = and i64 %27, 65280
  %29 = or i64 %25, %28
  %30 = load i64, ptr %2, align 8, !tbaa !8
  %31 = lshr i64 %30, 56
  %32 = and i64 %31, 255
  %33 = or i64 %29, %32
  ret i64 %33
}

; Function Attrs: mustprogress nounwind willreturn memory(read) uwtable
define { i64, i64 } @ROCKSDB_XXH128_hashFromCanonical(ptr noundef captures(none) %0) #1 {
  %2 = alloca %struct.XXH128_hash_t, align 8
  %3 = alloca ptr, align 8
  store ptr %0, ptr %3, align 8, !tbaa !4
  %4 = load ptr, ptr %3, align 8, !tbaa !4
  %5 = call noundef i64 @_ZL12XXH_readBE64PKv(ptr noundef %4)
  %6 = getelementptr inbounds nuw %struct.XXH128_hash_t, ptr %2, i32 0, i32 1
  store i64 %5, ptr %6, align 8, !tbaa !60
  %7 = load ptr, ptr %3, align 8, !tbaa !4
  %8 = getelementptr inbounds nuw %struct.XXH128_canonical_t, ptr %7, i32 0, i32 0
  %9 = getelementptr inbounds [16 x i8], ptr %8, i64 0, i64 0
  %10 = getelementptr inbounds i8, ptr %9, i64 8
  %11 = call noundef i64 @_ZL12XXH_readBE64PKv(ptr noundef %10)
  %12 = getelementptr inbounds nuw %struct.XXH128_hash_t, ptr %2, i32 0, i32 0
  store i64 %11, ptr %12, align 8, !tbaa !58
  %13 = load { i64, i64 }, ptr %2, align 8
  ret { i64, i64 } %13
}

; Function Attrs: alwaysinline mustprogress uwtable
define internal void @_ZL14XXH3_combine16Pv13XXH128_hash_t(ptr noundef %0, i64 %1, i64 %2) #7 {
  %4 = alloca %struct.XXH128_hash_t, align 8
  %5 = alloca ptr, align 8
  %6 = getelementptr inbounds nuw { i64, i64 }, ptr %4, i32 0, i32 0
  store i64 %1, ptr %6, align 8
  %7 = getelementptr inbounds nuw { i64, i64 }, ptr %4, i32 0, i32 1
  store i64 %2, ptr %7, align 8
  store ptr %0, ptr %5, align 8, !tbaa !4
  %8 = load ptr, ptr %5, align 8, !tbaa !4
  %9 = load ptr, ptr %5, align 8, !tbaa !4
  %10 = call noundef i64 @_ZL12XXH_readLE64PKv(ptr noundef %9)
  %11 = getelementptr inbounds nuw %struct.XXH128_hash_t, ptr %4, i32 0, i32 0
  %12 = load i64, ptr %11, align 8, !tbaa !58
  %13 = xor i64 %10, %12
  call void @_ZL13XXH_writeLE64Pvm(ptr noundef %8, i64 noundef %13)
  %14 = load ptr, ptr %5, align 8, !tbaa !4
  %15 = getelementptr inbounds i8, ptr %14, i64 8
  %16 = load ptr, ptr %5, align 8, !tbaa !4
  %17 = getelementptr inbounds i8, ptr %16, i64 8
  %18 = call noundef i64 @_ZL12XXH_readLE64PKv(ptr noundef %17)
  %19 = getelementptr inbounds nuw %struct.XXH128_hash_t, ptr %4, i32 0, i32 1
  %20 = load i64, ptr %19, align 8, !tbaa !60
  %21 = xor i64 %18, %20
  call void @_ZL13XXH_writeLE64Pvm(ptr noundef %15, i64 noundef %21)
  ret void
}

; Function Attrs: mustprogress uwtable
define void @ROCKSDB_XXH128_canonicalFromHash(ptr noundef captures(none) %0, i64 %1, i64 %2) #3 {
  %4 = alloca %struct.XXH128_hash_t, align 8
  %5 = alloca ptr, align 8
  %6 = getelementptr inbounds nuw { i64, i64 }, ptr %4, i32 0, i32 0
  store i64 %1, ptr %6, align 8
  %7 = getelementptr inbounds nuw { i64, i64 }, ptr %4, i32 0, i32 1
  store i64 %2, ptr %7, align 8
  store ptr %0, ptr %5, align 8, !tbaa !4
  br label %8

8:                                                ; preds = %3
  br label %9

9:                                                ; preds = %8
  %10 = getelementptr inbounds nuw %struct.XXH128_hash_t, ptr %4, i32 0, i32 1
  %11 = load i64, ptr %10, align 8, !tbaa !60
  %12 = call noundef i64 @_ZL10XXH_swap64m(i64 noundef %11)
  %13 = getelementptr inbounds nuw %struct.XXH128_hash_t, ptr %4, i32 0, i32 1
  store i64 %12, ptr %13, align 8, !tbaa !60
  %14 = getelementptr inbounds nuw %struct.XXH128_hash_t, ptr %4, i32 0, i32 0
  %15 = load i64, ptr %14, align 8, !tbaa !58
  %16 = call noundef i64 @_ZL10XXH_swap64m(i64 noundef %15)
  %17 = getelementptr inbounds nuw %struct.XXH128_hash_t, ptr %4, i32 0, i32 0
  store i64 %16, ptr %17, align 8, !tbaa !58
  %18 = load ptr, ptr %5, align 8, !tbaa !4
  %19 = getelementptr inbounds nuw %struct.XXH128_hash_t, ptr %4, i32 0, i32 1
  %20 = call noundef ptr @_ZL10XXH_memcpyPvPKvm(ptr noundef %18, ptr noundef %19, i64 noundef 8)
  %21 = load ptr, ptr %5, align 8, !tbaa !4
  %22 = getelementptr inbounds nuw i8, ptr %21, i64 8
  %23 = getelementptr inbounds nuw %struct.XXH128_hash_t, ptr %4, i32 0, i32 0
  %24 = call noundef ptr @_ZL10XXH_memcpyPvPKvm(ptr noundef %22, ptr noundef %23, i64 noundef 8)
  ret void
}

; Function Attrs: mustprogress nounwind willreturn memory(read) uwtable
define { i64, i64 } @ROCKSDB_XXH128(ptr noundef captures(none) %0, i64 noundef %1, i64 noundef %2) #1 {
  %4 = alloca %struct.XXH128_hash_t, align 8
  %5 = alloca ptr, align 8
  %6 = alloca i64, align 8
  %7 = alloca i64, align 8
  store ptr %0, ptr %5, align 8, !tbaa !4
  store i64 %1, ptr %6, align 8, !tbaa !8
  store i64 %2, ptr %7, align 8, !tbaa !8
  %8 = load ptr, ptr %5, align 8, !tbaa !4
  %9 = load i64, ptr %6, align 8, !tbaa !8
  %10 = load i64, ptr %7, align 8, !tbaa !8
  %11 = call { i64, i64 } @ROCKSDB_XXH3_128bits_withSeed(ptr noundef captures(none) %8, i64 noundef %9, i64 noundef %10) #21
  %12 = getelementptr inbounds nuw { i64, i64 }, ptr %4, i32 0, i32 0
  %13 = extractvalue { i64, i64 } %11, 0
  store i64 %13, ptr %12, align 8
  %14 = getelementptr inbounds nuw { i64, i64 }, ptr %4, i32 0, i32 1
  %15 = extractvalue { i64, i64 } %11, 1
  store i64 %15, ptr %14, align 8
  %16 = load { i64, i64 }, ptr %4, align 8
  ret { i64, i64 } %16
}

; Function Attrs: mustprogress uwtable
define i32 @ROCKSDB_XXH3_generateSecret(ptr noundef captures(none) %0, i64 noundef %1, ptr noundef captures(none) %2, i64 noundef %3) #3 {
  %5 = alloca i32, align 4
  %6 = alloca ptr, align 8
  %7 = alloca i64, align 8
  %8 = alloca ptr, align 8
  %9 = alloca i64, align 8
  %10 = alloca i64, align 8
  %11 = alloca i64, align 8
  %12 = alloca i64, align 8
  %13 = alloca i64, align 8
  %14 = alloca %struct.XXH128_canonical_t, align 1
  %15 = alloca %struct.XXH128_hash_t, align 8
  %16 = alloca %struct.XXH128_hash_t, align 8
  %17 = alloca %struct.XXH128_hash_t, align 8
  %18 = alloca %struct.XXH128_hash_t, align 8
  store ptr %0, ptr %6, align 8, !tbaa !4
  store i64 %1, ptr %7, align 8, !tbaa !8
  store ptr %2, ptr %8, align 8, !tbaa !4
  store i64 %3, ptr %9, align 8, !tbaa !8
  %19 = load ptr, ptr %6, align 8, !tbaa !4
  %20 = icmp eq ptr %19, null
  br i1 %20, label %21, label %22

21:                                               ; preds = %4
  store i32 1, ptr %5, align 4
  br label %111

22:                                               ; preds = %4
  %23 = load i64, ptr %7, align 8, !tbaa !8
  %24 = icmp ult i64 %23, 136
  br i1 %24, label %25, label %26

25:                                               ; preds = %22
  store i32 1, ptr %5, align 4
  br label %111

26:                                               ; preds = %22
  %27 = load i64, ptr %9, align 8, !tbaa !8
  %28 = icmp eq i64 %27, 0
  br i1 %28, label %29, label %30

29:                                               ; preds = %26
  store ptr @_ZL12XXH3_kSecret, ptr %8, align 8, !tbaa !4
  store i64 192, ptr %9, align 8, !tbaa !8
  br label %30

30:                                               ; preds = %29, %26
  %31 = load ptr, ptr %8, align 8, !tbaa !4
  %32 = icmp eq ptr %31, null
  br i1 %32, label %33, label %34

33:                                               ; preds = %30
  store i32 1, ptr %5, align 4
  br label %111

34:                                               ; preds = %30
  call void @llvm.lifetime.start.p0(i64 8, ptr %10) #22
  store i64 0, ptr %10, align 8, !tbaa !8
  br label %35

35:                                               ; preds = %51, %34
  %36 = load i64, ptr %10, align 8, !tbaa !8
  %37 = load i64, ptr %7, align 8, !tbaa !8
  %38 = icmp ult i64 %36, %37
  br i1 %38, label %39, label %61

39:                                               ; preds = %35
  call void @llvm.lifetime.start.p0(i64 8, ptr %11) #22
  %40 = load i64, ptr %7, align 8, !tbaa !8
  %41 = load i64, ptr %10, align 8, !tbaa !8
  %42 = sub i64 %40, %41
  %43 = load i64, ptr %9, align 8, !tbaa !8
  %44 = icmp ugt i64 %42, %43
  br i1 %44, label %45, label %47

45:                                               ; preds = %39
  %46 = load i64, ptr %9, align 8, !tbaa !8
  br label %51

47:                                               ; preds = %39
  %48 = load i64, ptr %7, align 8, !tbaa !8
  %49 = load i64, ptr %10, align 8, !tbaa !8
  %50 = sub i64 %48, %49
  br label %51

51:                                               ; preds = %47, %45
  %52 = phi i64 [ %46, %45 ], [ %50, %47 ]
  store i64 %52, ptr %11, align 8, !tbaa !8
  %53 = load ptr, ptr %6, align 8, !tbaa !4
  %54 = load i64, ptr %10, align 8, !tbaa !8
  %55 = getelementptr inbounds nuw i8, ptr %53, i64 %54
  %56 = load ptr, ptr %8, align 8, !tbaa !4
  %57 = load i64, ptr %11, align 8, !tbaa !8
  call void @llvm.memcpy.p0.p0.i64(ptr align 1 %55, ptr align 1 %56, i64 %57, i1 false)
  %58 = load i64, ptr %11, align 8, !tbaa !8
  %59 = load i64, ptr %10, align 8, !tbaa !8
  %60 = add i64 %59, %58
  store i64 %60, ptr %10, align 8, !tbaa !8
  call void @llvm.lifetime.end.p0(i64 8, ptr %11) #22
  br label %35, !llvm.loop !62

61:                                               ; preds = %35
  call void @llvm.lifetime.end.p0(i64 8, ptr %10) #22
  call void @llvm.lifetime.start.p0(i64 8, ptr %12) #22
  %62 = load i64, ptr %7, align 8, !tbaa !8
  %63 = udiv i64 %62, 16
  store i64 %63, ptr %12, align 8, !tbaa !8
  call void @llvm.lifetime.start.p0(i64 8, ptr %13) #22
  call void @llvm.lifetime.start.p0(i64 16, ptr %14) #22
  %64 = load ptr, ptr %8, align 8, !tbaa !4
  %65 = load i64, ptr %9, align 8, !tbaa !8
  %66 = call { i64, i64 } @ROCKSDB_XXH128(ptr noundef captures(none) %64, i64 noundef %65, i64 noundef 0) #21
  %67 = getelementptr inbounds nuw { i64, i64 }, ptr %15, i32 0, i32 0
  %68 = extractvalue { i64, i64 } %66, 0
  store i64 %68, ptr %67, align 8
  %69 = getelementptr inbounds nuw { i64, i64 }, ptr %15, i32 0, i32 1
  %70 = extractvalue { i64, i64 } %66, 1
  store i64 %70, ptr %69, align 8
  %71 = getelementptr inbounds nuw { i64, i64 }, ptr %15, i32 0, i32 0
  %72 = load i64, ptr %71, align 8
  %73 = getelementptr inbounds nuw { i64, i64 }, ptr %15, i32 0, i32 1
  %74 = load i64, ptr %73, align 8
  call void @ROCKSDB_XXH128_canonicalFromHash(ptr noundef captures(none) %14, i64 %72, i64 %74)
  store i64 0, ptr %13, align 8, !tbaa !8
  br label %75

75:                                               ; preds = %94, %61
  %76 = load i64, ptr %13, align 8, !tbaa !8
  %77 = load i64, ptr %12, align 8, !tbaa !8
  %78 = icmp ult i64 %76, %77
  br i1 %78, label %79, label %97

79:                                               ; preds = %75
  call void @llvm.lifetime.start.p0(i64 16, ptr %16) #22
  %80 = load i64, ptr %13, align 8, !tbaa !8
  %81 = call { i64, i64 } @ROCKSDB_XXH128(ptr noundef captures(none) %14, i64 noundef 16, i64 noundef %80) #21
  %82 = getelementptr inbounds nuw { i64, i64 }, ptr %16, i32 0, i32 0
  %83 = extractvalue { i64, i64 } %81, 0
  store i64 %83, ptr %82, align 8
  %84 = getelementptr inbounds nuw { i64, i64 }, ptr %16, i32 0, i32 1
  %85 = extractvalue { i64, i64 } %81, 1
  store i64 %85, ptr %84, align 8
  %86 = load ptr, ptr %6, align 8, !tbaa !4
  %87 = load i64, ptr %13, align 8, !tbaa !8
  %88 = mul i64 %87, 16
  %89 = getelementptr inbounds nuw i8, ptr %86, i64 %88
  call void @llvm.memcpy.p0.p0.i64(ptr align 8 %17, ptr align 8 %16, i64 16, i1 false), !tbaa.struct !61
  %90 = getelementptr inbounds nuw { i64, i64 }, ptr %17, i32 0, i32 0
  %91 = load i64, ptr %90, align 8
  %92 = getelementptr inbounds nuw { i64, i64 }, ptr %17, i32 0, i32 1
  %93 = load i64, ptr %92, align 8
  call void @_ZL14XXH3_combine16Pv13XXH128_hash_t(ptr noundef %89, i64 %91, i64 %93)
  call void @llvm.lifetime.end.p0(i64 16, ptr %16) #22
  br label %94

94:                                               ; preds = %79
  %95 = load i64, ptr %13, align 8, !tbaa !8
  %96 = add i64 %95, 1
  store i64 %96, ptr %13, align 8, !tbaa !8
  br label %75, !llvm.loop !63

97:                                               ; preds = %75
  %98 = load ptr, ptr %6, align 8, !tbaa !4
  %99 = load i64, ptr %7, align 8, !tbaa !8
  %100 = getelementptr inbounds nuw i8, ptr %98, i64 %99
  %101 = getelementptr inbounds i8, ptr %100, i64 -16
  %102 = call { i64, i64 } @ROCKSDB_XXH128_hashFromCanonical(ptr noundef captures(none) %14) #21
  %103 = getelementptr inbounds nuw { i64, i64 }, ptr %18, i32 0, i32 0
  %104 = extractvalue { i64, i64 } %102, 0
  store i64 %104, ptr %103, align 8
  %105 = getelementptr inbounds nuw { i64, i64 }, ptr %18, i32 0, i32 1
  %106 = extractvalue { i64, i64 } %102, 1
  store i64 %106, ptr %105, align 8
  %107 = getelementptr inbounds nuw { i64, i64 }, ptr %18, i32 0, i32 0
  %108 = load i64, ptr %107, align 8
  %109 = getelementptr inbounds nuw { i64, i64 }, ptr %18, i32 0, i32 1
  %110 = load i64, ptr %109, align 8
  call void @_ZL14XXH3_combine16Pv13XXH128_hash_t(ptr noundef %101, i64 %108, i64 %110)
  call void @llvm.lifetime.end.p0(i64 16, ptr %14) #22
  call void @llvm.lifetime.end.p0(i64 8, ptr %13) #22
  call void @llvm.lifetime.end.p0(i64 8, ptr %12) #22
  store i32 0, ptr %5, align 4
  br label %111

111:                                              ; preds = %97, %33, %25, %21
  %112 = load i32, ptr %5, align 4
  ret i32 %112
}