; Function Attrs: mustprogress nofree norecurse nosync nounwind memory(readwrite, inaccessiblemem: read) uwtable
define range(i32 0, 2) i32 @ROCKSDB_XXH3_generateSecret(ptr noundef captures(none) %0, i64 noundef %1, ptr noundef readonly captures(none) %2, i64 noundef %3) local_unnamed_addr #24 {
  %5 = icmp eq ptr %0, null
  %6 = icmp ult i64 %1, 136
  %or.cond = or i1 %5, %6
  br i1 %or.cond, label %65, label %7

7:                                                ; preds = %4
  %8 = icmp eq i64 %3, 0
  %spec.select = select i1 %8, i64 192, i64 %3
  %spec.select41 = select i1 %8, ptr @_ZL12XXH3_kSecret, ptr %2
  %9 = icmp eq ptr %spec.select41, null
  br i1 %9, label %65, label %.lr.ph

.lr.ph:                                           ; preds = %7, %.lr.ph
  %.03650 = phi i64 [ %13, %.lr.ph ], [ 0, %7 ]
  %10 = sub nuw i64 %1, %.03650
  %11 = tail call i64 @llvm.umin.i64(i64 %10, i64 %spec.select)
  %12 = getelementptr inbounds nuw i8, ptr %0, i64 %.03650
  tail call void @llvm.memcpy.p0.p0.i64(ptr nonnull align 1 %12, ptr nonnull align 1 %spec.select41, i64 %11, i1 false)
  %13 = add i64 %11, %.03650
  %14 = icmp ult i64 %13, %1
  br i1 %14, label %.lr.ph, label %.lr.ph53, !llvm.loop !46

.lr.ph53:                                         ; preds = %.lr.ph
  %15 = lshr i64 %1, 4
  %16 = tail call { i64, i64 } @ROCKSDB_XXH3_128bits_withSeed(ptr noundef nonnull readonly captures(none) %spec.select41, i64 noundef %spec.select, i64 noundef 0) #36
  %17 = extractvalue { i64, i64 } %16, 0
  %18 = extractvalue { i64, i64 } %16, 1
  %19 = tail call noundef i64 @llvm.bswap.i64(i64 %17)
  %20 = tail call noundef i64 @llvm.bswap.i64(i64 %18)
  %invariant.op = xor i64 %20, %19
  br label %21

21:                                               ; preds = %.lr.ph53, %21
  %.03751 = phi i64 [ 0, %.lr.ph53 ], [ %59, %21 ]
  %22 = sub nuw nsw i64 6455697860950631241, %.03751
  %23 = add nuw nsw i64 %.03751, -4466874330221494952
  %.reass.reass = xor i64 %22, %invariant.op
  %24 = zext i64 %.reass.reass to i128
  %25 = mul nuw i128 %24, 11400714785074694791
  %26 = trunc i128 %25 to i64
  %27 = lshr i128 %25, 64
  %28 = trunc nuw i128 %27 to i64
  %29 = add i64 %26, 270215977642229760
  %30 = xor i64 %23, %19
  %31 = and i64 %30, 4294967295
  %32 = mul nuw i64 %31, 2246822518
  %33 = add i64 %32, %30
  %34 = add i64 %33, %28
  %35 = tail call noundef i64 @llvm.bswap.i64(i64 %34)
  %36 = xor i64 %35, %29
  %37 = zext i64 %36 to i128
  %38 = mul nuw i128 %37, 14029467366897019727
  %39 = trunc i128 %38 to i64
  %40 = lshr i128 %38, 64
  %41 = trunc nuw i128 %40 to i64
  %42 = mul i64 %34, -4417276706812531889
  %43 = add i64 %42, %41
  %44 = lshr i64 %39, 37
  %45 = xor i64 %44, %39
  %46 = mul i64 %45, 1609587791953885689
  %47 = lshr i64 %46, 32
  %48 = lshr i64 %43, 37
  %49 = xor i64 %48, %43
  %50 = mul i64 %49, 1609587791953885689
  %51 = lshr i64 %50, 32
  %52 = shl nuw i64 %.03751, 4
  %53 = getelementptr inbounds nuw i8, ptr %0, i64 %52
  %.val44 = load i64, ptr %53, align 1, !tbaa !19
  %54 = xor i64 %47, %.val44
  %55 = xor i64 %54, %46
  store i64 %55, ptr %53, align 1
  %56 = getelementptr inbounds nuw i8, ptr %53, i64 8
  %.val43 = load i64, ptr %56, align 1, !tbaa !19
  %57 = xor i64 %51, %.val43
  %58 = xor i64 %57, %50
  store i64 %58, ptr %56, align 1
  %59 = add nuw nsw i64 %.03751, 1
  %exitcond.not = icmp eq i64 %59, %15
  br i1 %exitcond.not, label %._crit_edge54, label %21, !llvm.loop !47

._crit_edge54:                                    ; preds = %21
  %60 = getelementptr inbounds nuw i8, ptr %0, i64 %1
  %61 = getelementptr inbounds i8, ptr %60, i64 -16
  %.val42 = load i64, ptr %61, align 1, !tbaa !19
  %62 = xor i64 %.val42, %17
  store i64 %62, ptr %61, align 1
  %63 = getelementptr inbounds i8, ptr %60, i64 -8
  %.val = load i64, ptr %63, align 1, !tbaa !19
  %64 = xor i64 %.val, %18
  store i64 %64, ptr %63, align 1
  br label %65

65:                                               ; preds = %7, %4, %._crit_edge54
  %.0 = phi i32 [ 0, %._crit_edge54 ], [ 1, %4 ], [ 1, %7 ]
  ret i32 %.0
}